target datalayout = "e-m:e-p270:32:32-p271:32:32-p272:64:64-i64:64-i128:128-f80:128-n8:16:32:64-S128"
target triple = "x86_64-unknown-linux-gnu"

%"class.v8::TryCatch" = type <{ ptr, ptr, ptr, ptr, i64, i8, [7 x i8] }>
%"class.v8::Local" = type { %"class.v8::LocalBase" }
%"class.v8::LocalBase" = type { %"class.v8::IndirectHandleBase" }
%"class.v8::IndirectHandleBase" = type { ptr }

@_ZZN4node6crypto14InitCryptoOnceEPN2v87IsolateEE9init_once = internal global i32 0, align 4

; Function Attrs: mustprogress nounwind uwtable
define dso_local noundef zeroext i1 @_ZN4node6crypto14InitCryptoOnceEPN2v87IsolateE(ptr noundef %isolate) #4 {
entry:
  %retval = alloca i1, align 1
  %isolate.addr = alloca ptr, align 8
  %try_catch = alloca %"class.v8::TryCatch", align 8
  %coerce = alloca %"class.v8::Local", align 8
  %cleanup.dest.slot = alloca i32, align 4
  store ptr %isolate, ptr %isolate.addr, align 8
  %0 = load ptr, ptr %isolate.addr, align 8
  call void @_ZN2v88TryCatchC1EPNS_7IsolateE(ptr noundef nonnull align 8 dereferenceable(41) %try_catch, ptr noundef %0)
  call void @uv_once(ptr noundef @_ZZN4node6crypto14InitCryptoOnceEPN2v87IsolateEE9init_once, ptr noundef @_ZN4node6crypto14InitCryptoOnceEv)
  %call = call noundef zeroext i1 @_ZNK2v88TryCatch9HasCaughtEv(ptr noundef nonnull align 8 dereferenceable(41) %try_catch)
  br i1 %call, label %land.lhs.true, label %if.end

land.lhs.true:                                    ; preds = %entry
  %call1 = call noundef zeroext i1 @_ZNK2v88TryCatch13HasTerminatedEv(ptr noundef nonnull align 8 dereferenceable(41) %try_catch)
  br i1 %call1, label %if.end, label %if.then

if.then:                                          ; preds = %land.lhs.true
  %call2 = call ptr @_ZN2v88TryCatch7ReThrowEv(ptr noundef nonnull align 8 dereferenceable(41) %try_catch)
  %coerce.dive = getelementptr inbounds %"class.v8::Local", ptr %coerce, i32 0, i32 0
  %coerce.dive3 = getelementptr inbounds %"class.v8::LocalBase", ptr %coerce.dive, i32 0, i32 0
  %coerce.dive4 = getelementptr inbounds %"class.v8::IndirectHandleBase", ptr %coerce.dive3, i32 0, i32 0
  store ptr %call2, ptr %coerce.dive4, align 8
  store i1 false, ptr %retval, align 1
  store i32 1, ptr %cleanup.dest.slot, align 4
  br label %cleanup

if.end:                                           ; preds = %land.lhs.true, %entry
  store i1 true, ptr %retval, align 1
  store i32 1, ptr %cleanup.dest.slot, align 4
  br label %cleanup

cleanup:                                          ; preds = %if.end, %if.then
  call void @_ZN2v88TryCatchD1Ev(ptr noundef nonnull align 8 dereferenceable(41) %try_catch) #3
  %1 = load i1, ptr %retval, align 1
  ret i1 %1
}