; Function Attrs: mustprogress nounwind uwtable
define dso_local noundef zeroext i1 @_ZN4node6crypto14InitCryptoOnceEPN2v87IsolateE(ptr noundef %isolate) local_unnamed_addr #4 {
entry:
  %try_catch = alloca %"class.v8::TryCatch", align 8
  call void @_ZN2v88TryCatchC1EPNS_7IsolateE(ptr noundef nonnull align 8 dereferenceable(41) %try_catch, ptr noundef %isolate) #25
  call void @uv_once(ptr noundef nonnull @_ZZN4node6crypto14InitCryptoOnceEPN2v87IsolateEE9init_once, ptr noundef nonnull @_ZN4node6crypto14InitCryptoOnceEv) #25
  %call = call noundef zeroext i1 @_ZNK2v88TryCatch9HasCaughtEv(ptr noundef nonnull align 8 dereferenceable(41) %try_catch) #25
  br i1 %call, label %land.lhs.true, label %cleanup

land.lhs.true:                                    ; preds = %entry
  %call1 = call noundef zeroext i1 @_ZNK2v88TryCatch13HasTerminatedEv(ptr noundef nonnull align 8 dereferenceable(41) %try_catch) #25
  br i1 %call1, label %cleanup, label %if.then

if.then:                                          ; preds = %land.lhs.true
  %call2 = call ptr @_ZN2v88TryCatch7ReThrowEv(ptr noundef nonnull align 8 dereferenceable(41) %try_catch) #25
  br label %cleanup

cleanup:                                          ; preds = %entry, %land.lhs.true, %if.then
  %retval.0 = phi i1 [ false, %if.then ], [ true, %land.lhs.true ], [ true, %entry ]
  call void @_ZN2v88TryCatchD1Ev(ptr noundef nonnull align 8 dereferenceable(41) %try_catch) #25
  ret i1 %retval.0
}